target datalayout = "e-m:e-p270:32:32-p271:32:32-p272:64:64-i64:64-i128:128-f80:128-n8:16:32:64-S128"
target triple = "x86_64-pc-linux-gnu"

%struct.archive_rb_tree = type { ptr, ptr }
%struct.archive_rb_tree_ops = type { ptr, ptr }
%struct.archive_rb_node = type { [2 x ptr], i64 }

; Function Attrs: nounwind uwtable
define dso_local ptr @__archive_rb_tree_find_node(ptr noundef %0, ptr noundef %1) #0 {
  %3 = alloca ptr, align 8
  %4 = alloca ptr, align 8
  %5 = alloca ptr, align 8
  %6 = alloca ptr, align 8
  %7 = alloca ptr, align 8
  %8 = alloca i32, align 4
  store ptr %0, ptr %4, align 8
  store ptr %1, ptr %5, align 8
  %9 = load ptr, ptr %4, align 8
  %10 = getelementptr inbounds %struct.archive_rb_tree, ptr %9, i32 0, i32 1
  %11 = load ptr, ptr %10, align 8
  %12 = getelementptr inbounds %struct.archive_rb_tree_ops, ptr %11, i32 0, i32 1
  %13 = load ptr, ptr %12, align 8
  store ptr %13, ptr %6, align 8
  %14 = load ptr, ptr %4, align 8
  %15 = getelementptr inbounds %struct.archive_rb_tree, ptr %14, i32 0, i32 0
  %16 = load ptr, ptr %15, align 8
  store ptr %16, ptr %7, align 8
  br label %17

17:                                               ; preds = %30, %2
  %18 = load ptr, ptr %7, align 8
  %19 = icmp eq ptr %18, null
  %20 = xor i1 %19, true
  br i1 %20, label %21, label %39

21:                                               ; preds = %17
  %22 = load ptr, ptr %6, align 8
  %23 = load ptr, ptr %7, align 8
  %24 = load ptr, ptr %5, align 8
  %25 = call i32 %22(ptr noundef %23, ptr noundef %24)
  store i32 %25, ptr %8, align 4
  %26 = load i32, ptr %8, align 4
  %27 = icmp eq i32 %26, 0
  br i1 %27, label %28, label %30

28:                                               ; preds = %21
  %29 = load ptr, ptr %7, align 8
  store ptr %29, ptr %3, align 8
  br label %40

30:                                               ; preds = %21
  %31 = load ptr, ptr %7, align 8
  %32 = getelementptr inbounds %struct.archive_rb_node, ptr %31, i32 0, i32 0
  %33 = load i32, ptr %8, align 4
  %34 = icmp sgt i32 %33, 0
  %35 = zext i1 %34 to i32
  %36 = sext i32 %35 to i64
  %37 = getelementptr inbounds [2 x ptr], ptr %32, i64 0, i64 %36
  %38 = load ptr, ptr %37, align 8
  store ptr %38, ptr %7, align 8
  br label %17, !llvm.loop !5

39:                                               ; preds = %17
  store ptr null, ptr %3, align 8
  br label %40

40:                                               ; preds = %39, %28
  %41 = load ptr, ptr %3, align 8
  ret ptr %41
}